(lp0
(S'elfflags'
p1
ccopy_reg
_reconstructor
p2
(cino.utils
SpaceList
p3
c__builtin__
list
p4
(lp5
S'-Os'
p6
aS'-Wl,--gc-sections'
p7
aS'-mmcu=atmega328p'
p8
atp9
Rp10
tp11
a(S'version.txt'
p12
S'/usr/share/arduino/lib/version.txt'
p13
tp14
a(S'used_libs'
p15
(lp16
S'lib/WiShield'
p17
aS'/usr/share/arduino/hardware/arduino/cores/arduino'
p18
atp19
a(S'cc'
p20
S'/usr/bin/avr-gcc'
p21
tp22
a(S'arduino_libraries_dir'
p23
S'/usr/share/arduino/libraries'
p24
tp25
a(S'arduino_core_dir'
p26
g18
tp27
a(S'boards.txt'
p28
S'/usr/share/arduino/hardware/arduino/boards.txt'
p29
tp30
a(S'cxxflags'
p31
g2
(g3
g4
(lp32
S'-fno-exceptions'
p33
atp34
Rp35
tp36
a(S'arduino_variants_dir'
p37
S'/usr/share/arduino/hardware/arduino/variants'
p38
tp39
a(S'deps'
p40
g2
(g3
g4
(lp41
S'.build/src/dependencies.d'
p42
aS'.build/arduino/dependencies.d'
p43
aS'.build/WiShield/dependencies.d'
p44
atp45
Rp46
tp47
a(S'ar'
p48
S'/usr/bin/avr-ar'
p49
tp50
a(S'names'
p51
(dp52
S'cpp'
p53
S'%s.cpp'
p54
sS'obj'
p55
S'%s.o'
p56
sg40
S'%s.d'
p57
sS'lib'
p58
S'lib%s.a'
p59
stp60
a(S'cflags'
p61
g2
(g3
g4
(lp62
g8
aS'-ffunction-sections'
p63
aS'-fdata-sections'
p64
aS'-g'
p65
ag6
aS'-w'
p66
aS'-DF_CPU=16000000L'
p67
aS'-DARDUINO=100'
p68
aS'-I/usr/share/arduino/hardware/arduino/cores/arduino'
p69
aS'-I/usr/share/arduino/hardware/arduino/variants/standard'
p70
aS'-Ilib/WiShield'
p71
aS'-I/usr/share/arduino/hardware/arduino/cores/arduino'
p72
atp73
Rp74
tp75
a(S'arduino_lib_version'
p76
g2
(cino.environment
Version
p77
c__builtin__
tuple
p78
(I1
I0
tp79
tp80
Rp81
tp82
a(S'objcopy'
p83
S'/usr/bin/avr-objcopy'
p84
tp85
a(S'board_models'
p86
cino.environment
BoardModels
p87
((lp88
(lp89
S'uno'
p90
a(dp91
S'build'
p92
(dp93
S'core'
p94
S'arduino'
p95
sS'mcu'
p96
S'atmega328p'
p97
sS'f_cpu'
p98
S'16000000L'
p99
sS'variant'
p100
S'standard'
p101
ssS'bootloader'
p102
(dp103
S'extended_fuses'
p104
S'0x05'
p105
sS'high_fuses'
p106
S'0xde'
p107
sS'low_fuses'
p108
S'0xff'
p109
sS'lock_bits'
p110
S'0x0F'
p111
sS'file'
p112
S'optiboot_atmega328.hex'
p113
sS'path'
p114
S'optiboot'
p115
sS'unlock_bits'
p116
S'0x3F'
p117
ssS'name'
p118
S'Arduino Uno'
p119
sS'upload'
p120
(dp121
S'speed'
p122
S'115200'
p123
sS'maximum_size'
p124
S'32256'
p125
sS'protocol'
p126
S'arduino'
p127
ssaa(lp128
S'atmega328'
p129
a(dp130
S'build'
p131
(dp132
S'core'
p133
S'arduino'
p134
sS'mcu'
p135
S'atmega328p'
p136
sS'f_cpu'
p137
S'16000000L'
p138
sS'variant'
p139
S'standard'
p140
ssS'bootloader'
p141
(dp142
S'extended_fuses'
p143
S'0x05'
p144
sS'high_fuses'
p145
S'0xDA'
p146
sS'low_fuses'
p147
S'0xFF'
p148
sS'lock_bits'
p149
S'0x0F'
p150
sS'file'
p151
S'ATmegaBOOT_168_atmega328.hex'
p152
sS'path'
p153
S'atmega'
p154
sS'unlock_bits'
p155
S'0x3F'
p156
ssS'name'
p157
S'Arduino Duemilanove w/ ATmega328'
p158
sS'upload'
p159
(dp160
S'speed'
p161
S'57600'
p162
sS'maximum_size'
p163
S'30720'
p164
sS'protocol'
p165
S'arduino'
p166
ssaa(lp167
S'diecimila'
p168
a(dp169
S'build'
p170
(dp171
S'core'
p172
S'arduino'
p173
sS'mcu'
p174
S'atmega168'
p175
sS'f_cpu'
p176
S'16000000L'
p177
sS'variant'
p178
S'standard'
p179
ssS'bootloader'
p180
(dp181
S'extended_fuses'
p182
S'0x00'
p183
sS'high_fuses'
p184
S'0xdd'
p185
sS'low_fuses'
p186
S'0xff'
p187
sS'lock_bits'
p188
S'0x0F'
p189
sS'file'
p190
S'ATmegaBOOT_168_diecimila.hex'
p191
sS'path'
p192
S'atmega'
p193
sS'unlock_bits'
p194
S'0x3F'
p195
ssS'name'
p196
S'Arduino Diecimila or Duemilanove w/ ATmega168'
p197
sS'upload'
p198
(dp199
S'speed'
p200
S'19200'
p201
sS'maximum_size'
p202
S'14336'
p203
sS'protocol'
p204
S'arduino'
p205
ssaa(lp206
S'nano328'
p207
a(dp208
S'build'
p209
(dp210
S'core'
p211
S'arduino'
p212
sS'mcu'
p213
S'atmega328p'
p214
sS'f_cpu'
p215
S'16000000L'
p216
sS'variant'
p217
S'eightanaloginputs'
p218
ssS'bootloader'
p219
(dp220
S'extended_fuses'
p221
S'0x05'
p222
sS'high_fuses'
p223
S'0xDA'
p224
sS'low_fuses'
p225
S'0xFF'
p226
sS'lock_bits'
p227
S'0x0F'
p228
sS'file'
p229
S'ATmegaBOOT_168_atmega328.hex'
p230
sS'path'
p231
S'atmega'
p232
sS'unlock_bits'
p233
S'0x3F'
p234
ssS'name'
p235
S'Arduino Nano w/ ATmega328'
p236
sS'upload'
p237
(dp238
S'speed'
p239
S'57600'
p240
sS'maximum_size'
p241
S'30720'
p242
sS'protocol'
p243
S'arduino'
p244
ssaa(lp245
S'nano'
p246
a(dp247
S'build'
p248
(dp249
S'core'
p250
S'arduino'
p251
sS'mcu'
p252
S'atmega168'
p253
sS'f_cpu'
p254
S'16000000L'
p255
sS'variant'
p256
S'eightanaloginputs'
p257
ssS'bootloader'
p258
(dp259
S'extended_fuses'
p260
S'0x00'
p261
sS'high_fuses'
p262
S'0xdd'
p263
sS'low_fuses'
p264
S'0xff'
p265
sS'lock_bits'
p266
S'0x0F'
p267
sS'file'
p268
S'ATmegaBOOT_168_diecimila.hex'
p269
sS'path'
p270
S'atmega'
p271
sS'unlock_bits'
p272
S'0x3F'
p273
ssS'name'
p274
S'Arduino Nano w/ ATmega168'
p275
sS'upload'
p276
(dp277
S'speed'
p278
S'19200'
p279
sS'maximum_size'
p280
S'14336'
p281
sS'protocol'
p282
S'arduino'
p283
ssaa(lp284
S'mega2560'
p285
a(dp286
S'build'
p287
(dp288
S'core'
p289
S'arduino'
p290
sS'mcu'
p291
S'atmega2560'
p292
sS'f_cpu'
p293
S'16000000L'
p294
sS'variant'
p295
S'mega'
p296
ssS'bootloader'
p297
(dp298
S'extended_fuses'
p299
S'0xFD'
p300
sS'high_fuses'
p301
S'0xD8'
p302
sS'low_fuses'
p303
S'0xFF'
p304
sS'lock_bits'
p305
S'0x0F'
p306
sS'file'
p307
S'stk500boot_v2_mega2560.hex'
p308
sS'path'
p309
S'stk500v2'
p310
sS'unlock_bits'
p311
S'0x3F'
p312
ssS'name'
p313
S'Arduino Mega 2560 or Mega ADK'
p314
sS'upload'
p315
(dp316
S'speed'
p317
S'115200'
p318
sS'maximum_size'
p319
S'258048'
p320
sS'protocol'
p321
S'stk500v2'
p322
ssaa(lp323
S'mega'
p324
a(dp325
S'build'
p326
(dp327
S'core'
p328
S'arduino'
p329
sS'mcu'
p330
S'atmega1280'
p331
sS'f_cpu'
p332
S'16000000L'
p333
sS'variant'
p334
S'mega'
p335
ssS'bootloader'
p336
(dp337
S'extended_fuses'
p338
S'0xF5'
p339
sS'high_fuses'
p340
S'0xDA'
p341
sS'low_fuses'
p342
S'0xFF'
p343
sS'lock_bits'
p344
S'0x0F'
p345
sS'file'
p346
S'ATmegaBOOT_168_atmega1280.hex'
p347
sS'path'
p348
S'atmega'
p349
sS'unlock_bits'
p350
S'0x3F'
p351
ssS'name'
p352
S'Arduino Mega (ATmega1280)'
p353
sS'upload'
p354
(dp355
S'speed'
p356
S'57600'
p357
sS'maximum_size'
p358
S'126976'
p359
sS'protocol'
p360
S'arduino'
p361
ssaa(lp362
S'leonardo'
p363
a(dp364
S'build'
p365
(dp366
S'core'
p367
S'arduino'
p368
sS'f_cpu'
p369
S'16000000L'
p370
sS'vid'
p371
S'0x2341'
p372
sS'pid'
p373
S'0x8036'
p374
sS'variant'
p375
S'leonardo'
p376
sS'mcu'
p377
S'atmega32u4'
p378
ssS'bootloader'
p379
(dp380
S'extended_fuses'
p381
S'0xcb'
p382
sS'high_fuses'
p383
S'0xd8'
p384
sS'low_fuses'
p385
S'0xff'
p386
sS'lock_bits'
p387
S'0x2F'
p388
sS'file'
p389
S'Caterina-Leonardo.hex'
p390
sS'path'
p391
S'caterina'
p392
sS'unlock_bits'
p393
S'0x3F'
p394
ssS'name'
p395
S'Arduino Leonardo'
p396
sS'upload'
p397
(dp398
S'speed'
p399
S'57600'
p400
sS'maximum_size'
p401
S'28672'
p402
sS'protocol'
p403
S'avr109'
p404
sS'disable_flushing'
p405
S'true'
p406
ssaa(lp407
S'mini328'
p408
a(dp409
S'build'
p410
(dp411
S'core'
p412
S'arduino'
p413
sS'mcu'
p414
S'atmega328p'
p415
sS'f_cpu'
p416
S'16000000L'
p417
sS'variant'
p418
S'eightanaloginputs'
p419
ssS'bootloader'
p420
(dp421
S'extended_fuses'
p422
S'0x05'
p423
sS'high_fuses'
p424
S'0xd8'
p425
sS'low_fuses'
p426
S'0xff'
p427
sS'lock_bits'
p428
S'0x0F'
p429
sS'file'
p430
S'optiboot_atmega328-Mini.hex'
p431
sS'path'
p432
S'optiboot'
p433
sS'unlock_bits'
p434
S'0x3F'
p435
ssS'name'
p436
S'Arduino Mini w/ ATmega328'
p437
sS'upload'
p438
(dp439
S'speed'
p440
S'115200'
p441
sS'maximum_size'
p442
S'28672'
p443
sS'protocol'
p444
S'arduino'
p445
ssaa(lp446
S'mini'
p447
a(dp448
S'build'
p449
(dp450
S'core'
p451
S'arduino'
p452
sS'mcu'
p453
S'atmega168'
p454
sS'f_cpu'
p455
S'16000000L'
p456
sS'variant'
p457
S'eightanaloginputs'
p458
ssS'bootloader'
p459
(dp460
S'extended_fuses'
p461
S'0x00'
p462
sS'high_fuses'
p463
S'0xdd'
p464
sS'low_fuses'
p465
S'0xff'
p466
sS'lock_bits'
p467
S'0x0F'
p468
sS'file'
p469
S'ATmegaBOOT_168_ng.hex'
p470
sS'path'
p471
S'atmega'
p472
sS'unlock_bits'
p473
S'0x3F'
p474
ssS'name'
p475
S'Arduino Mini w/ ATmega168'
p476
sS'upload'
p477
(dp478
S'speed'
p479
S'19200'
p480
sS'maximum_size'
p481
S'14336'
p482
sS'protocol'
p483
S'arduino'
p484
ssaa(lp485
S'ethernet'
p486
a(dp487
S'build'
p488
(dp489
S'f_cpu'
p490
S'16000000L'
p491
sS'mcu'
p492
S'atmega328p'
p493
sS'variant'
p494
S'standard'
p495
sS'core'
p496
S'arduino'
p497
ssS'bootloader'
p498
(dp499
S'extended_fuses'
p500
S'0x05'
p501
sS'high_fuses'
p502
S'0xde'
p503
sS'low_fuses'
p504
S'0xff'
p505
sS'lock_bits'
p506
S'0x0F'
p507
sS'file'
p508
S'optiboot_atmega328.hex'
p509
sS'path'
p510
S'optiboot'
p511
sS'unlock_bits'
p512
S'0x3F'
p513
ssS'name'
p514
S'Arduino Ethernet'
p515
sS'upload'
p516
(dp517
S'speed'
p518
S'115200'
p519
sS'maximum_size'
p520
S'32256'
p521
sS'protocol'
p522
S'arduino'
p523
ssaa(lp524
S'fio'
p525
a(dp526
S'build'
p527
(dp528
S'core'
p529
S'arduino'
p530
sS'mcu'
p531
S'atmega328p'
p532
sS'f_cpu'
p533
S'8000000L'
p534
sS'variant'
p535
S'eightanaloginputs'
p536
ssS'bootloader'
p537
(dp538
S'extended_fuses'
p539
S'0x05'
p540
sS'high_fuses'
p541
S'0xDA'
p542
sS'low_fuses'
p543
S'0xFF'
p544
sS'lock_bits'
p545
S'0x0F'
p546
sS'file'
p547
S'ATmegaBOOT_168_atmega328_pro_8MHz.hex'
p548
sS'path'
p549
S'arduino:atmega'
p550
sS'unlock_bits'
p551
S'0x3F'
p552
ssS'name'
p553
S'Arduino Fio'
p554
sS'upload'
p555
(dp556
S'speed'
p557
S'57600'
p558
sS'maximum_size'
p559
S'30720'
p560
sS'protocol'
p561
S'arduino'
p562
ssaa(lp563
S'bt328'
p564
a(dp565
S'build'
p566
(dp567
S'core'
p568
S'arduino'
p569
sS'mcu'
p570
S'atmega328p'
p571
sS'f_cpu'
p572
S'16000000L'
p573
sS'variant'
p574
S'eightanaloginputs'
p575
ssS'bootloader'
p576
(dp577
S'extended_fuses'
p578
S'0x05'
p579
sS'high_fuses'
p580
S'0xd8'
p581
sS'low_fuses'
p582
S'0xff'
p583
sS'lock_bits'
p584
S'0x0F'
p585
sS'file'
p586
S'ATmegaBOOT_168_atmega328_bt.hex'
p587
sS'path'
p588
S'bt'
p589
sS'unlock_bits'
p590
S'0x3F'
p591
ssS'name'
p592
S'Arduino BT w/ ATmega328'
p593
sS'upload'
p594
(dp595
S'speed'
p596
S'19200'
p597
sS'maximum_size'
p598
S'28672'
p599
sS'protocol'
p600
S'arduino'
p601
sS'disable_flushing'
p602
S'true'
p603
ssaa(lp604
S'bt'
p605
a(dp606
S'build'
p607
(dp608
S'core'
p609
S'arduino'
p610
sS'mcu'
p611
S'atmega168'
p612
sS'f_cpu'
p613
S'16000000L'
p614
sS'variant'
p615
S'eightanaloginputs'
p616
ssS'bootloader'
p617
(dp618
S'extended_fuses'
p619
S'0x00'
p620
sS'high_fuses'
p621
S'0xdd'
p622
sS'low_fuses'
p623
S'0xff'
p624
sS'lock_bits'
p625
S'0x0F'
p626
sS'file'
p627
S'ATmegaBOOT_168.hex'
p628
sS'path'
p629
S'bt'
p630
sS'unlock_bits'
p631
S'0x3F'
p632
ssS'name'
p633
S'Arduino BT w/ ATmega168'
p634
sS'upload'
p635
(dp636
S'speed'
p637
S'19200'
p638
sS'maximum_size'
p639
S'14336'
p640
sS'protocol'
p641
S'arduino'
p642
sS'disable_flushing'
p643
S'true'
p644
ssaa(lp645
S'lilypad328'
p646
a(dp647
S'build'
p648
(dp649
S'core'
p650
S'arduino'
p651
sS'mcu'
p652
S'atmega328p'
p653
sS'f_cpu'
p654
S'8000000L'
p655
sS'variant'
p656
S'standard'
p657
ssS'bootloader'
p658
(dp659
S'extended_fuses'
p660
S'0x05'
p661
sS'high_fuses'
p662
S'0xDA'
p663
sS'low_fuses'
p664
S'0xFF'
p665
sS'lock_bits'
p666
S'0x0F'
p667
sS'file'
p668
S'ATmegaBOOT_168_atmega328_pro_8MHz.hex'
p669
sS'path'
p670
S'atmega'
p671
sS'unlock_bits'
p672
S'0x3F'
p673
ssS'name'
p674
S'LilyPad Arduino w/ ATmega328'
p675
sS'upload'
p676
(dp677
S'speed'
p678
S'57600'
p679
sS'maximum_size'
p680
S'30720'
p681
sS'protocol'
p682
S'arduino'
p683
ssaa(lp684
S'lilypad'
p685
a(dp686
S'build'
p687
(dp688
S'core'
p689
S'arduino'
p690
sS'mcu'
p691
S'atmega168'
p692
sS'f_cpu'
p693
S'8000000L'
p694
sS'variant'
p695
S'standard'
p696
ssS'bootloader'
p697
(dp698
S'extended_fuses'
p699
S'0x00'
p700
sS'high_fuses'
p701
S'0xdd'
p702
sS'low_fuses'
p703
S'0xe2'
p704
sS'lock_bits'
p705
S'0x0F'
p706
sS'file'
p707
S'LilyPadBOOT_168.hex'
p708
sS'path'
p709
S'lilypad'
p710
sS'unlock_bits'
p711
S'0x3F'
p712
ssS'name'
p713
S'LilyPad Arduino w/ ATmega168'
p714
sS'upload'
p715
(dp716
S'speed'
p717
S'19200'
p718
sS'maximum_size'
p719
S'14336'
p720
sS'protocol'
p721
S'arduino'
p722
ssaa(lp723
S'pro5v328'
p724
a(dp725
S'build'
p726
(dp727
S'core'
p728
S'arduino'
p729
sS'mcu'
p730
S'atmega328p'
p731
sS'f_cpu'
p732
S'16000000L'
p733
sS'variant'
p734
S'standard'
p735
ssS'bootloader'
p736
(dp737
S'extended_fuses'
p738
S'0x05'
p739
sS'high_fuses'
p740
S'0xDA'
p741
sS'low_fuses'
p742
S'0xFF'
p743
sS'lock_bits'
p744
S'0x0F'
p745
sS'file'
p746
S'ATmegaBOOT_168_atmega328.hex'
p747
sS'path'
p748
S'atmega'
p749
sS'unlock_bits'
p750
S'0x3F'
p751
ssS'name'
p752
S'Arduino Pro or Pro Mini (5V, 16 MHz) w/ ATmega328'
p753
sS'upload'
p754
(dp755
S'speed'
p756
S'57600'
p757
sS'maximum_size'
p758
S'30720'
p759
sS'protocol'
p760
S'arduino'
p761
ssaa(lp762
S'pro5v'
p763
a(dp764
S'build'
p765
(dp766
S'core'
p767
S'arduino'
p768
sS'mcu'
p769
S'atmega168'
p770
sS'f_cpu'
p771
S'16000000L'
p772
sS'variant'
p773
S'standard'
p774
ssS'bootloader'
p775
(dp776
S'extended_fuses'
p777
S'0x00'
p778
sS'high_fuses'
p779
S'0xdd'
p780
sS'low_fuses'
p781
S'0xff'
p782
sS'lock_bits'
p783
S'0x0F'
p784
sS'file'
p785
S'ATmegaBOOT_168_diecimila.hex'
p786
sS'path'
p787
S'atmega'
p788
sS'unlock_bits'
p789
S'0x3F'
p790
ssS'name'
p791
S'Arduino Pro or Pro Mini (5V, 16 MHz) w/ ATmega168'
p792
sS'upload'
p793
(dp794
S'speed'
p795
S'19200'
p796
sS'maximum_size'
p797
S'14336'
p798
sS'protocol'
p799
S'arduino'
p800
ssaa(lp801
S'pro328'
p802
a(dp803
S'build'
p804
(dp805
S'core'
p806
S'arduino'
p807
sS'mcu'
p808
S'atmega328p'
p809
sS'f_cpu'
p810
S'8000000L'
p811
sS'variant'
p812
S'standard'
p813
ssS'bootloader'
p814
(dp815
S'extended_fuses'
p816
S'0x05'
p817
sS'high_fuses'
p818
S'0xDA'
p819
sS'low_fuses'
p820
S'0xFF'
p821
sS'lock_bits'
p822
S'0x0F'
p823
sS'file'
p824
S'ATmegaBOOT_168_atmega328_pro_8MHz.hex'
p825
sS'path'
p826
S'atmega'
p827
sS'unlock_bits'
p828
S'0x3F'
p829
ssS'name'
p830
S'Arduino Pro or Pro Mini (3.3V, 8 MHz) w/ ATmega328'
p831
sS'upload'
p832
(dp833
S'speed'
p834
S'57600'
p835
sS'maximum_size'
p836
S'30720'
p837
sS'protocol'
p838
S'arduino'
p839
ssaa(lp840
S'pro'
p841
a(dp842
S'build'
p843
(dp844
S'core'
p845
S'arduino'
p846
sS'mcu'
p847
S'atmega168'
p848
sS'f_cpu'
p849
S'8000000L'
p850
sS'variant'
p851
S'standard'
p852
ssS'bootloader'
p853
(dp854
S'extended_fuses'
p855
S'0x00'
p856
sS'high_fuses'
p857
S'0xdd'
p858
sS'low_fuses'
p859
S'0xc6'
p860
sS'lock_bits'
p861
S'0x0F'
p862
sS'file'
p863
S'ATmegaBOOT_168_pro_8MHz.hex'
p864
sS'path'
p865
S'atmega'
p866
sS'unlock_bits'
p867
S'0x3F'
p868
ssS'name'
p869
S'Arduino Pro or Pro Mini (3.3V, 8 MHz) w/ ATmega168'
p870
sS'upload'
p871
(dp872
S'speed'
p873
S'19200'
p874
sS'maximum_size'
p875
S'14336'
p876
sS'protocol'
p877
S'arduino'
p878
ssaa(lp879
S'atmega168'
p880
a(dp881
S'build'
p882
(dp883
S'core'
p884
S'arduino'
p885
sS'mcu'
p886
S'atmega168'
p887
sS'f_cpu'
p888
S'16000000L'
p889
sS'variant'
p890
S'standard'
p891
ssS'bootloader'
p892
(dp893
S'extended_fuses'
p894
S'0x00'
p895
sS'high_fuses'
p896
S'0xdd'
p897
sS'low_fuses'
p898
S'0xff'
p899
sS'lock_bits'
p900
S'0x0F'
p901
sS'file'
p902
S'ATmegaBOOT_168_ng.hex'
p903
sS'path'
p904
S'atmega'
p905
sS'unlock_bits'
p906
S'0x3F'
p907
ssS'name'
p908
S'Arduino NG or older w/ ATmega168'
p909
sS'upload'
p910
(dp911
S'speed'
p912
S'19200'
p913
sS'maximum_size'
p914
S'14336'
p915
sS'protocol'
p916
S'arduino'
p917
ssaa(lp918
S'atmega8'
p919
a(dp920
S'build'
p921
(dp922
S'core'
p923
S'arduino'
p924
sS'mcu'
p925
S'atmega8'
p926
sS'f_cpu'
p927
S'16000000L'
p928
sS'variant'
p929
S'standard'
p930
ssS'bootloader'
p931
(dp932
S'high_fuses'
p933
S'0xca'
p934
sS'low_fuses'
p935
S'0xdf'
p936
sS'lock_bits'
p937
S'0x0F'
p938
sS'file'
p939
S'ATmegaBOOT.hex'
p940
sS'path'
p941
S'atmega8'
p942
sS'unlock_bits'
p943
S'0x3F'
p944
ssS'name'
p945
S'Arduino NG or older w/ ATmega8'
p946
sS'upload'
p947
(dp948
S'speed'
p949
S'19200'
p950
sS'maximum_size'
p951
S'7168'
p952
sS'protocol'
p953
S'arduino'
p954
ssaatp955
Rp956
(dp957
S'default'
p958
S'uno'
p959
sbtp960
a(S'cxx'
p961
S'/usr/bin/avr-g++'
p962
tp963
a.